; Function Attrs: mustprogress nofree norecurse nosync nounwind memory(read, argmem: readwrite, inaccessiblemem: none) uwtable
define internal void @_ZN2cv12cpu_baseline12_GLOBAL__N_113vlineSmooth3NItNS_12_GLOBAL__N_113ufixedpoint32EEEvPKPKT0_S7_iPT_i(ptr noundef readonly captures(none) %0, ptr noundef readonly captures(none) %1, i32 %2, ptr noundef writeonly captures(none) %3, i32 noundef %4) #17 {
  %6 = icmp sgt i32 %4, 0
  br i1 %6, label %.lr.ph, label %._crit_edge

.lr.ph:                                           ; preds = %5
  %7 = load ptr, ptr %0, align 8, !tbaa !1818
  %8 = load i32, ptr %1, align 4, !tbaa !73, !noalias !1825
  %9 = zext i32 %8 to i64
  %10 = getelementptr inbounds nuw i8, ptr %1, i64 4
  %11 = getelementptr inbounds nuw i8, ptr %0, i64 8
  %12 = load ptr, ptr %11, align 8, !tbaa !1818
  %13 = load i32, ptr %10, align 4, !tbaa !73, !noalias !1828
  %14 = zext i32 %13 to i64
  %15 = getelementptr inbounds nuw i8, ptr %1, i64 8
  %16 = getelementptr inbounds nuw i8, ptr %0, i64 16
  %17 = load ptr, ptr %16, align 8, !tbaa !1818
  %18 = load i32, ptr %15, align 4, !tbaa !73, !noalias !1831
  %19 = zext i32 %18 to i64
  %wide.trip.count = zext nneg i32 %4 to i64
  br label %20

._crit_edge:                                      ; preds = %20, %5
  ret void

20:                                               ; preds = %.lr.ph, %20
  %indvars.iv = phi i64 [ 0, %.lr.ph ], [ %indvars.iv.next, %20 ]
  %21 = getelementptr inbounds nuw %"class.cv::(anonymous namespace)::ufixedpoint32", ptr %7, i64 %indvars.iv
  %22 = load i32, ptr %21, align 4, !tbaa !73, !noalias !1825
  %23 = zext i32 %22 to i64
  %24 = mul nuw i64 %23, %9
  %25 = getelementptr inbounds nuw %"class.cv::(anonymous namespace)::ufixedpoint32", ptr %12, i64 %indvars.iv
  %26 = load i32, ptr %25, align 4, !tbaa !73, !noalias !1828
  %27 = zext i32 %26 to i64
  %28 = mul nuw i64 %27, %14
  %29 = tail call i64 @llvm.uadd.sat.i64(i64 %24, i64 %28)
  %30 = getelementptr inbounds nuw %"class.cv::(anonymous namespace)::ufixedpoint32", ptr %17, i64 %indvars.iv
  %31 = load i32, ptr %30, align 4, !tbaa !73, !noalias !1831
  %32 = zext i32 %31 to i64
  %33 = mul nuw i64 %32, %19
  %34 = tail call i64 @llvm.uadd.sat.i64(i64 %29, i64 %33)
  %35 = add i64 %34, 2147483648
  %36 = lshr i64 %35, 32
  %.sroa.speculated.i = tail call i64 @llvm.umin.i64(i64 range(i64 0, 4294967296) %36, i64 65535)
  %37 = trunc nuw i64 %.sroa.speculated.i to i16
  %38 = getelementptr inbounds nuw i16, ptr %3, i64 %indvars.iv
  store i16 %37, ptr %38, align 2, !tbaa !400
  %indvars.iv.next = add nuw nsw i64 %indvars.iv, 1
  %exitcond.not = icmp eq i64 %indvars.iv.next, %wide.trip.count
  br i1 %exitcond.not, label %._crit_edge, label %20, !llvm.loop !1834
}